target datalayout = "e-m:e-p270:32:32-p271:32:32-p272:64:64-i64:64-i128:128-f80:128-n8:16:32:64-S128"
target triple = "x86_64-unknown-linux-gnu"

%struct.aiString = type { i32, [1024 x i8] }
%struct.aiAnimation = type { %struct.aiString, double, double, i32, ptr, i32, ptr, i32, ptr }

; Function Attrs: mustprogress uwtable
define void @_ZN6Assimp22FindInvalidDataProcess16ProcessAnimationEP11aiAnimation(ptr noundef nonnull align 8 dereferenceable(29) %this, ptr noundef %anim) #3 align 2 {
entry:
  %this.addr = alloca ptr, align 8
  %anim.addr = alloca ptr, align 8
  %a = alloca i32, align 4
  store ptr %this, ptr %this.addr, align 8
  store ptr %anim, ptr %anim.addr, align 8
  %this1 = load ptr, ptr %this.addr, align 8
  store i32 0, ptr %a, align 4
  br label %for.cond

for.cond:                                         ; preds = %for.inc, %entry
  %0 = load i32, ptr %a, align 4
  %1 = load ptr, ptr %anim.addr, align 8
  %mNumChannels = getelementptr inbounds %struct.aiAnimation, ptr %1, i32 0, i32 3
  %2 = load i32, ptr %mNumChannels, align 8
  %cmp = icmp ult i32 %0, %2
  br i1 %cmp, label %for.body, label %for.end

for.body:                                         ; preds = %for.cond
  %3 = load ptr, ptr %anim.addr, align 8
  %mChannels = getelementptr inbounds %struct.aiAnimation, ptr %3, i32 0, i32 4
  %4 = load ptr, ptr %mChannels, align 8
  %5 = load i32, ptr %a, align 4
  %idxprom = zext i32 %5 to i64
  %arrayidx = getelementptr inbounds ptr, ptr %4, i64 %idxprom
  %6 = load ptr, ptr %arrayidx, align 8
  call void @_ZN6Assimp22FindInvalidDataProcess23ProcessAnimationChannelEP10aiNodeAnim(ptr noundef nonnull align 8 dereferenceable(29) %this1, ptr noundef %6)
  br label %for.inc

for.inc:                                          ; preds = %for.body
  %7 = load i32, ptr %a, align 4
  %inc = add i32 %7, 1
  store i32 %inc, ptr %a, align 4
  br label %for.cond, !llvm.loop !19

for.end:                                          ; preds = %for.cond
  ret void
}