; Function Attrs: mustprogress uwtable
define void @_ZN6Assimp22FindInvalidDataProcess16ProcessAnimationEP11aiAnimation(ptr nocapture noundef nonnull readonly align 8 dereferenceable(29) %this, ptr nocapture noundef readonly %anim) local_unnamed_addr #3 align 2 {
entry:
  %mNumChannels = getelementptr inbounds i8, ptr %anim, i64 1048
  %0 = load i32, ptr %mNumChannels, align 8
  %cmp4.not = icmp eq i32 %0, 0
  br i1 %cmp4.not, label %for.end, label %for.body.lr.ph

for.body.lr.ph:                                   ; preds = %entry
  %mChannels = getelementptr inbounds i8, ptr %anim, i64 1056
  br label %for.body

for.body:                                         ; preds = %for.body.lr.ph, %for.body
  %indvars.iv = phi i64 [ 0, %for.body.lr.ph ], [ %indvars.iv.next, %for.body ]
  %1 = load ptr, ptr %mChannels, align 8
  %arrayidx = getelementptr inbounds ptr, ptr %1, i64 %indvars.iv
  %2 = load ptr, ptr %arrayidx, align 8
  tail call void @_ZN6Assimp22FindInvalidDataProcess23ProcessAnimationChannelEP10aiNodeAnim(ptr noundef nonnull align 8 dereferenceable(29) %this, ptr noundef %2)
  %indvars.iv.next = add nuw nsw i64 %indvars.iv, 1
  %3 = load i32, ptr %mNumChannels, align 8
  %4 = zext i32 %3 to i64
  %cmp = icmp ult i64 %indvars.iv.next, %4
  br i1 %cmp, label %for.body, label %for.end, !llvm.loop !9

for.end:                                          ; preds = %for.body, %entry
  ret void
}